; Function Attrs: nounwind allocsize(0) uwtable
define dso_local noalias ptr @zcalloc(i64 noundef %size) local_unnamed_addr #4 {
entry:
  %cmp.i = icmp ugt i64 %size, 9223372036854775806
  br i1 %cmp.i, label %if.then, label %if.end.i

if.end.i:                                         ; preds = %entry
  %cmp1.not.i = icmp eq i64 %size, 0
  %cond.i = select i1 %cmp1.not.i, i64 8, i64 %size
  %call.i = tail call noalias ptr @je_calloc(i64 noundef 1, i64 noundef %cond.i) #26
  %cmp2.i = icmp eq ptr %call.i, null
  br i1 %cmp2.i, label %if.then, label %ztrycalloc_usable_internal.exit

ztrycalloc_usable_internal.exit:                  ; preds = %if.end.i
  %call5.i = tail call i64 @je_malloc_usable_size(ptr noundef nonnull %call.i) #24
  %0 = atomicrmw add ptr @used_memory, i64 %call5.i monotonic, align 8
  br label %if.end

if.then:                                          ; preds = %entry, %if.end.i
  %1 = load ptr, ptr @zmalloc_oom_handler, align 8
  tail call void %1(i64 noundef %size) #24
  br label %if.end

if.end:                                           ; preds = %ztrycalloc_usable_internal.exit, %if.then
  %retval.0.i5 = phi ptr [ null, %if.then ], [ %call.i, %ztrycalloc_usable_internal.exit ]
  ret ptr %retval.0.i5
}